; Function Attrs: mustprogress nounwind uwtable
define hidden noundef zeroext i1 @_ZN5ZMark5flushEv(ptr noundef nonnull align 64 dereferenceable(2652) %0) local_unnamed_addr #0 align 2 {
  %2 = alloca %class.ZMarkFlushAndFreeStacksClosure, align 8
  %3 = alloca %class.VM_ZMarkFlushOperation, align 8
  %4 = getelementptr inbounds i8, ptr %2, i64 8
  store ptr @.str.24, ptr %4, align 8
  store ptr getelementptr inbounds inrange(-16, 48) (i8, ptr @_ZTV30ZMarkFlushAndFreeStacksClosure, i64 16), ptr %2, align 8
  %5 = getelementptr inbounds i8, ptr %2, i64 16
  store ptr %0, ptr %5, align 8
  %6 = getelementptr inbounds i8, ptr %2, i64 24
  store i8 0, ptr %6, align 8
  %7 = getelementptr inbounds i8, ptr %3, i64 8
  store ptr null, ptr %7, align 8
  store ptr getelementptr inbounds inrange(-16, 80) (i8, ptr @_ZTV22VM_ZMarkFlushOperation, i64 16), ptr %3, align 8
  %8 = getelementptr inbounds i8, ptr %3, i64 16
  store ptr %2, ptr %8, align 8
  call void @_ZN9Handshake7executeEP16HandshakeClosure(ptr noundef nonnull %2) #15
  call void @_ZN8VMThread7executeEP12VM_Operation(ptr noundef nonnull %3) #15
  %9 = load i8, ptr %6, align 8
  %10 = trunc i8 %9 to i1
  br i1 %10, label %15, label %11

11:                                               ; preds = %1
  %12 = getelementptr inbounds i8, ptr %0, i64 384
  %13 = call noundef zeroext i1 @_ZNK14ZMarkStripeSet8is_emptyEv(ptr noundef nonnull align 64 dereferenceable(2112) %12) #15
  %14 = xor i1 %13, true
  br label %15

15:                                               ; preds = %11, %1
  %16 = phi i1 [ true, %1 ], [ %14, %11 ]
  ret i1 %16
}